target datalayout = "e-m:e-p270:32:32-p271:32:32-p272:64:64-i64:64-i128:128-f80:128-n8:16:32:64-S128"
target triple = "x86_64-pc-linux-gnu"

@_base64 = internal constant [65 x i8] c"ABCDEFGHIJKLMNOPQRSTUVWXYZabcdefghijklmnopqrstuvwxyz0123456789+/\00", align 16

; Function Attrs: nounwind uwtable
define i32 @pg_b64_encode(ptr noundef %0, i32 noundef %1, ptr noundef %2, i32 noundef %3) #0 {
  %5 = alloca i32, align 4
  %6 = alloca ptr, align 8
  %7 = alloca i32, align 4
  %8 = alloca ptr, align 8
  %9 = alloca i32, align 4
  %10 = alloca ptr, align 8
  %11 = alloca ptr, align 8
  %12 = alloca ptr, align 8
  %13 = alloca i32, align 4
  %14 = alloca i32, align 4
  %15 = alloca i32, align 4
  store ptr %0, ptr %6, align 8
  store i32 %1, ptr %7, align 4
  store ptr %2, ptr %8, align 8
  store i32 %3, ptr %9, align 4
  call void @llvm.lifetime.start.p0(i64 8, ptr %10) #3
  call void @llvm.lifetime.start.p0(i64 8, ptr %11) #3
  call void @llvm.lifetime.start.p0(i64 8, ptr %12) #3
  %16 = load ptr, ptr %6, align 8
  %17 = load i32, ptr %7, align 4
  %18 = sext i32 %17 to i64
  %19 = getelementptr inbounds i8, ptr %16, i64 %18
  store ptr %19, ptr %12, align 8
  call void @llvm.lifetime.start.p0(i64 4, ptr %13) #3
  store i32 2, ptr %13, align 4
  call void @llvm.lifetime.start.p0(i64 4, ptr %14) #3
  store i32 0, ptr %14, align 4
  %20 = load ptr, ptr %6, align 8
  store ptr %20, ptr %11, align 8
  %21 = load ptr, ptr %8, align 8
  store ptr %21, ptr %10, align 8
  br label %22

22:                                               ; preds = %84, %4
  %23 = load ptr, ptr %11, align 8
  %24 = load ptr, ptr %12, align 8
  %25 = icmp ult ptr %23, %24
  br i1 %25, label %26, label %85

26:                                               ; preds = %22
  %27 = load ptr, ptr %11, align 8
  %28 = load i8, ptr %27, align 1
  %29 = zext i8 %28 to i32
  %30 = load i32, ptr %13, align 4
  %31 = shl i32 %30, 3
  %32 = shl i32 %29, %31
  %33 = load i32, ptr %14, align 4
  %34 = or i32 %33, %32
  store i32 %34, ptr %14, align 4
  %35 = load i32, ptr %13, align 4
  %36 = add i32 %35, -1
  store i32 %36, ptr %13, align 4
  %37 = load ptr, ptr %11, align 8
  %38 = getelementptr inbounds nuw i8, ptr %37, i32 1
  store ptr %38, ptr %11, align 8
  %39 = load i32, ptr %13, align 4
  %40 = icmp slt i32 %39, 0
  br i1 %40, label %41, label %84

41:                                               ; preds = %26
  %42 = load ptr, ptr %10, align 8
  %43 = load ptr, ptr %8, align 8
  %44 = ptrtoint ptr %42 to i64
  %45 = ptrtoint ptr %43 to i64
  %46 = sub i64 %44, %45
  %47 = add i64 %46, 4
  %48 = load i32, ptr %9, align 4
  %49 = sext i32 %48 to i64
  %50 = icmp sgt i64 %47, %49
  br i1 %50, label %51, label %52

51:                                               ; preds = %41
  br label %141

52:                                               ; preds = %41
  %53 = load i32, ptr %14, align 4
  %54 = lshr i32 %53, 18
  %55 = and i32 %54, 63
  %56 = zext i32 %55 to i64
  %57 = getelementptr inbounds nuw [65 x i8], ptr @_base64, i64 0, i64 %56
  %58 = load i8, ptr %57, align 1
  %59 = load ptr, ptr %10, align 8
  %60 = getelementptr inbounds nuw i8, ptr %59, i32 1
  store ptr %60, ptr %10, align 8
  store i8 %58, ptr %59, align 1
  %61 = load i32, ptr %14, align 4
  %62 = lshr i32 %61, 12
  %63 = and i32 %62, 63
  %64 = zext i32 %63 to i64
  %65 = getelementptr inbounds nuw [65 x i8], ptr @_base64, i64 0, i64 %64
  %66 = load i8, ptr %65, align 1
  %67 = load ptr, ptr %10, align 8
  %68 = getelementptr inbounds nuw i8, ptr %67, i32 1
  store ptr %68, ptr %10, align 8
  store i8 %66, ptr %67, align 1
  %69 = load i32, ptr %14, align 4
  %70 = lshr i32 %69, 6
  %71 = and i32 %70, 63
  %72 = zext i32 %71 to i64
  %73 = getelementptr inbounds nuw [65 x i8], ptr @_base64, i64 0, i64 %72
  %74 = load i8, ptr %73, align 1
  %75 = load ptr, ptr %10, align 8
  %76 = getelementptr inbounds nuw i8, ptr %75, i32 1
  store ptr %76, ptr %10, align 8
  store i8 %74, ptr %75, align 1
  %77 = load i32, ptr %14, align 4
  %78 = and i32 %77, 63
  %79 = zext i32 %78 to i64
  %80 = getelementptr inbounds nuw [65 x i8], ptr @_base64, i64 0, i64 %79
  %81 = load i8, ptr %80, align 1
  %82 = load ptr, ptr %10, align 8
  %83 = getelementptr inbounds nuw i8, ptr %82, i32 1
  store ptr %83, ptr %10, align 8
  store i8 %81, ptr %82, align 1
  store i32 2, ptr %13, align 4
  store i32 0, ptr %14, align 4
  br label %84

84:                                               ; preds = %52, %26
  br label %22, !llvm.loop !3

85:                                               ; preds = %22
  %86 = load i32, ptr %13, align 4
  %87 = icmp ne i32 %86, 2
  br i1 %87, label %88, label %134

88:                                               ; preds = %85
  %89 = load ptr, ptr %10, align 8
  %90 = load ptr, ptr %8, align 8
  %91 = ptrtoint ptr %89 to i64
  %92 = ptrtoint ptr %90 to i64
  %93 = sub i64 %91, %92
  %94 = add i64 %93, 4
  %95 = load i32, ptr %9, align 4
  %96 = sext i32 %95 to i64
  %97 = icmp sgt i64 %94, %96
  br i1 %97, label %98, label %99

98:                                               ; preds = %88
  br label %141

99:                                               ; preds = %88
  %100 = load i32, ptr %14, align 4
  %101 = lshr i32 %100, 18
  %102 = and i32 %101, 63
  %103 = zext i32 %102 to i64
  %104 = getelementptr inbounds nuw [65 x i8], ptr @_base64, i64 0, i64 %103
  %105 = load i8, ptr %104, align 1
  %106 = load ptr, ptr %10, align 8
  %107 = getelementptr inbounds nuw i8, ptr %106, i32 1
  store ptr %107, ptr %10, align 8
  store i8 %105, ptr %106, align 1
  %108 = load i32, ptr %14, align 4
  %109 = lshr i32 %108, 12
  %110 = and i32 %109, 63
  %111 = zext i32 %110 to i64
  %112 = getelementptr inbounds nuw [65 x i8], ptr @_base64, i64 0, i64 %111
  %113 = load i8, ptr %112, align 1
  %114 = load ptr, ptr %10, align 8
  %115 = getelementptr inbounds nuw i8, ptr %114, i32 1
  store ptr %115, ptr %10, align 8
  store i8 %113, ptr %114, align 1
  %116 = load i32, ptr %13, align 4
  %117 = icmp eq i32 %116, 0
  br i1 %117, label %118, label %126

118:                                              ; preds = %99
  %119 = load i32, ptr %14, align 4
  %120 = lshr i32 %119, 6
  %121 = and i32 %120, 63
  %122 = zext i32 %121 to i64
  %123 = getelementptr inbounds nuw [65 x i8], ptr @_base64, i64 0, i64 %122
  %124 = load i8, ptr %123, align 1
  %125 = sext i8 %124 to i32
  br label %127

126:                                              ; preds = %99
  br label %127

127:                                              ; preds = %126, %118
  %128 = phi i32 [ %125, %118 ], [ 61, %126 ]
  %129 = trunc i32 %128 to i8
  %130 = load ptr, ptr %10, align 8
  %131 = getelementptr inbounds nuw i8, ptr %130, i32 1
  store ptr %131, ptr %10, align 8
  store i8 %129, ptr %130, align 1
  %132 = load ptr, ptr %10, align 8
  %133 = getelementptr inbounds nuw i8, ptr %132, i32 1
  store ptr %133, ptr %10, align 8
  store i8 61, ptr %132, align 1
  br label %134

134:                                              ; preds = %127, %85
  %135 = load ptr, ptr %10, align 8
  %136 = load ptr, ptr %8, align 8
  %137 = ptrtoint ptr %135 to i64
  %138 = ptrtoint ptr %136 to i64
  %139 = sub i64 %137, %138
  %140 = trunc i64 %139 to i32
  store i32 %140, ptr %5, align 4
  store i32 1, ptr %15, align 4
  br label %145

141:                                              ; preds = %98, %51
  %142 = load ptr, ptr %8, align 8
  %143 = load i32, ptr %9, align 4
  %144 = sext i32 %143 to i64
  call void @llvm.memset.p0.i64(ptr align 1 %142, i8 0, i64 %144, i1 false)
  store i32 -1, ptr %5, align 4
  store i32 1, ptr %15, align 4
  br label %145

145:                                              ; preds = %141, %134
  call void @llvm.lifetime.end.p0(i64 4, ptr %14) #3
  call void @llvm.lifetime.end.p0(i64 4, ptr %13) #3
  call void @llvm.lifetime.end.p0(i64 8, ptr %12) #3
  call void @llvm.lifetime.end.p0(i64 8, ptr %11) #3
  call void @llvm.lifetime.end.p0(i64 8, ptr %10) #3
  %146 = load i32, ptr %5, align 4
  ret i32 %146
}